; Function Attrs: nofree norecurse nosync nounwind memory(read, argmem: readwrite, inaccessiblemem: none) uwtable
define void @Aig_ManSuppCharAdd(ptr noundef captures(none) %0, ptr noundef readonly captures(none) %1, i32 noundef %2) local_unnamed_addr #8 {
  %4 = getelementptr i8, ptr %1, i64 4
  %.val7 = load i32, ptr %4, align 4, !tbaa !33
  %5 = icmp sgt i32 %.val7, 0
  br i1 %5, label %.lr.ph, label %.critedge

.lr.ph:                                           ; preds = %3
  %6 = getelementptr i8, ptr %1, i64 8
  %.val6 = load ptr, ptr %6, align 8, !tbaa !37
  br label %7

7:                                                ; preds = %.lr.ph, %7
  %indvars.iv = phi i64 [ 0, %.lr.ph ], [ %indvars.iv.next, %7 ]
  %8 = getelementptr inbounds nuw i32, ptr %.val6, i64 %indvars.iv
  %9 = load i32, ptr %8, align 4, !tbaa !29
  %10 = and i32 %9, 31
  %11 = shl nuw i32 1, %10
  %12 = ashr i32 %9, 5
  %13 = sext i32 %12 to i64
  %14 = getelementptr inbounds i32, ptr %0, i64 %13
  %15 = load i32, ptr %14, align 4, !tbaa !29
  %16 = or i32 %11, %15
  store i32 %16, ptr %14, align 4, !tbaa !29
  %indvars.iv.next = add nuw nsw i64 %indvars.iv, 1
  %.val = load i32, ptr %4, align 4, !tbaa !33
  %17 = sext i32 %.val to i64
  %18 = icmp slt i64 %indvars.iv.next, %17
  br i1 %18, label %7, label %.critedge, !llvm.loop !71

.critedge:                                        ; preds = %7, %3
  ret void
}